; ModuleID = 'source-C-CXX/22/224.c'
source_filename = "source-C-CXX/22/224.c"
target datalayout = "e-m:e-p270:32:32-p271:32:32-p272:64:64-i64:64-f80:128-n8:16:32:64-S128"
target triple = "x86_64-pc-linux-gnu"

%struct._IO_FILE = type { i32, i8*, i8*, i8*, i8*, i8*, i8*, i8*, i8*, i8*, i8*, i8*, %struct._IO_marker*, %struct._IO_FILE*, i32, i32, i64, i16, i8, [1 x i8], i8*, i64, %struct._IO_codecvt*, %struct._IO_wide_data*, %struct._IO_FILE*, i8*, i64, i32, [20 x i8] }
%struct._IO_marker = type opaque
%struct._IO_codecvt = type opaque
%struct._IO_wide_data = type opaque

@.str = private unnamed_addr constant [3 x i8] c"%s\00", align 1
@stdout = external local_unnamed_addr global %struct._IO_FILE*, align 8

; Function Attrs: nounwind sspstrong uwtable
define dso_local void @main() local_unnamed_addr #0 {
  %1 = alloca [100 x i8], align 16
  %2 = alloca [100 x [100 x i8]], align 16
  %3 = getelementptr inbounds [100 x i8], [100 x i8]* %1, i64 0, i64 0
  call void @llvm.lifetime.start.p0i8(i64 100, i8* nonnull %3) #5
  %4 = getelementptr inbounds [100 x [100 x i8]], [100 x [100 x i8]]* %2, i64 0, i64 0, i64 0
  call void @llvm.lifetime.start.p0i8(i64 10000, i8* nonnull %4) #5
  %5 = call i32 (i8*, ...) bitcast (i32 (...)* @gets to i32 (i8*, ...)*)(i8* nonnull %3) #5
  %6 = call i64 @strlen(i8* noundef nonnull %3) #6
  %7 = trunc i64 %6 to i32
  %8 = icmp sgt i32 %7, 0
  br i1 %8, label %9, label %59

9:                                                ; preds = %0, %35
  %10 = phi i32 [ %37, %35 ], [ 0, %0 ]
  %11 = phi i32 [ %36, %35 ], [ 0, %0 ]
  %12 = sext i32 %11 to i64
  %13 = getelementptr inbounds [100 x i8], [100 x i8]* %1, i64 0, i64 %12
  %14 = load i8, i8* %13, align 1, !tbaa !5
  %15 = icmp eq i8 %14, 32
  br i1 %15, label %33, label %16

16:                                               ; preds = %9
  %17 = sext i32 %10 to i64
  br label %18

18:                                               ; preds = %16, %18
  %19 = phi i8 [ %14, %16 ], [ %26, %18 ]
  %20 = phi i64 [ 0, %16 ], [ %24, %18 ]
  %21 = phi i64 [ %12, %16 ], [ %23, %18 ]
  %22 = getelementptr inbounds [100 x [100 x i8]], [100 x [100 x i8]]* %2, i64 0, i64 %17, i64 %20
  store i8 %19, i8* %22, align 1, !tbaa !5
  %23 = add nsw i64 %21, 1
  %24 = add nuw i64 %20, 1
  %25 = getelementptr inbounds [100 x i8], [100 x i8]* %1, i64 0, i64 %23
  %26 = load i8, i8* %25, align 1, !tbaa !5
  %27 = icmp eq i8 %26, 32
  br i1 %27, label %28, label %18, !llvm.loop !8

28:                                               ; preds = %18
  %29 = trunc i64 %23 to i32
  %30 = and i64 %24, 4294967295
  %31 = getelementptr inbounds [100 x [100 x i8]], [100 x [100 x i8]]* %2, i64 0, i64 %17, i64 %30
  store i8 0, i8* %31, align 1, !tbaa !5
  %32 = add nsw i32 %10, 1
  br label %35

33:                                               ; preds = %9
  %34 = add nsw i32 %11, 1
  br label %35

35:                                               ; preds = %33, %28
  %36 = phi i32 [ %29, %28 ], [ %34, %33 ]
  %37 = phi i32 [ %32, %28 ], [ %10, %33 ]
  %38 = icmp slt i32 %36, %7
  br i1 %38, label %9, label %39, !llvm.loop !10

39:                                               ; preds = %35
  %40 = add i32 %37, -1
  %41 = icmp sgt i32 %37, 0
  br i1 %41, label %42, label %59

42:                                               ; preds = %39
  %43 = zext i32 %40 to i64
  %44 = zext i32 %40 to i64
  %45 = getelementptr inbounds [100 x [100 x i8]], [100 x [100 x i8]]* %2, i64 0, i64 %43, i64 0
  %46 = call i32 (i8*, ...) @printf(i8* nonnull dereferenceable(1) getelementptr inbounds ([3 x i8], [3 x i8]* @.str, i64 0, i64 0), i8* nonnull %45)
  %47 = icmp eq i32 %40, 0
  br i1 %47, label %59, label %48

48:                                               ; preds = %42, %55
  %49 = phi i64 [ %50, %55 ], [ %43, %42 ]
  %50 = add nsw i64 %49, -1
  %51 = icmp sgt i64 %49, %44
  br i1 %51, label %55, label %52

52:                                               ; preds = %48
  %53 = load %struct._IO_FILE*, %struct._IO_FILE** @stdout, align 8, !tbaa !11
  %54 = call i32 @putc(i32 32, %struct._IO_FILE* %53) #5
  br label %55

55:                                               ; preds = %52, %48
  %56 = getelementptr inbounds [100 x [100 x i8]], [100 x [100 x i8]]* %2, i64 0, i64 %50, i64 0
  %57 = call i32 (i8*, ...) @printf(i8* nonnull dereferenceable(1) getelementptr inbounds ([3 x i8], [3 x i8]* @.str, i64 0, i64 0), i8* nonnull %56)
  %58 = icmp sgt i64 %49, 1
  br i1 %58, label %48, label %59, !llvm.loop !13

59:                                               ; preds = %42, %55, %0, %39
  call void @llvm.lifetime.end.p0i8(i64 10000, i8* nonnull %4) #5
  call void @llvm.lifetime.end.p0i8(i64 100, i8* nonnull %3) #5
  ret void
}

; Function Attrs: argmemonly mustprogress nofree nosync nounwind willreturn
declare void @llvm.lifetime.start.p0i8(i64 immarg, i8* nocapture) #1

declare i32 @gets(...) local_unnamed_addr #2

; Function Attrs: argmemonly mustprogress nofree nounwind readonly willreturn
declare i64 @strlen(i8* nocapture) local_unnamed_addr #3

; Function Attrs: nofree nounwind
declare noundef i32 @printf(i8* nocapture noundef readonly, ...) local_unnamed_addr #4

; Function Attrs: argmemonly mustprogress nofree nosync nounwind willreturn
declare void @llvm.lifetime.end.p0i8(i64 immarg, i8* nocapture) #1

; Function Attrs: nofree nounwind
declare noundef i32 @putc(i32 noundef, %struct._IO_FILE* nocapture noundef) local_unnamed_addr #4


!llvm.module.flags = !{!0, !1, !2, !3}
!llvm.ident = !{!4}

!0 = !{i32 1, !"wchar_size", i32 4}
!1 = !{i32 7, !"PIC Level", i32 2}
!2 = !{i32 7, !"PIE Level", i32 2}
!3 = !{i32 7, !"uwtable", i32 1}
!4 = !{!"clang version 13.0.0"}
!5 = !{!6, !6, i64 0}
!6 = !{!"omnipotent char", !7, i64 0}
!7 = !{!"Simple C/C++ TBAA"}
!8 = distinct !{!8, !9}
!9 = !{!"llvm.loop.mustprogress"}
!10 = distinct !{!10, !9}
!11 = !{!12, !12, i64 0}
!12 = !{!"any pointer", !6, i64 0}
!13 = distinct !{!13, !9, !14}
!14 = !{!"llvm.loop.peeled.count", i32 1}
